Certificate Request:
    Data:
        Version: 0 (0x0)
        Subject: C=FR, ST=IDF, L=Paris, O=Local NODE-OPCUA Certificate Authority, CN=NodeOPCUA-CA
        Subject Public Key Info:
            Public Key Algorithm: rsaEncryption
                Public-Key: (2048 bit)
                Modulus:
                    00:df:89:f4:73:5d:88:a8:3c:94:37:99:66:44:9d:
                    2c:d1:a4:98:ef:3a:fa:e5:44:e7:a8:bb:21:63:fa:
                    92:af:a6:cb:b3:0b:8e:0d:7d:e6:68:cc:a1:2a:8f:
                    fa:2a:b9:ef:0c:68:2c:3c:6b:0a:07:70:02:15:ec:
                    fb:b4:4f:ca:78:87:0d:b9:fd:5d:63:10:57:69:8d:
                    09:28:93:3b:c7:6f:4e:c0:3e:8e:41:2c:6a:84:4b:
                    2d:2f:e8:46:29:92:0f:cf:e2:81:ad:c4:ed:ae:0a:
                    03:06:c9:87:da:dd:57:b9:4b:51:24:6a:bb:13:a2:
                    67:f1:d1:3b:27:6c:74:e5:65:98:e2:a2:da:0f:98:
                    da:fd:1f:37:1c:ac:50:a1:b1:5d:d5:8d:79:bd:f7:
                    e0:fa:e7:bb:dd:20:29:21:4b:1f:9d:53:75:bf:2c:
                    88:23:7b:58:61:0e:17:56:69:b6:e0:17:db:ff:9e:
                    96:ae:73:25:24:03:a5:88:ef:86:70:8f:7f:d0:28:
                    3a:ba:6a:75:b3:f0:61:a7:38:92:42:5e:83:fe:a4:
                    8e:b5:1e:25:93:92:a7:43:7d:9e:67:14:48:66:8e:
                    fd:9a:48:32:c1:a2:3e:e6:fc:be:64:64:39:ca:da:
                    d8:73:42:d5:3f:22:c2:25:46:88:f3:34:0b:d6:d1:
                    9a:31
                Exponent: 65537 (0x10001)
        Attributes:
        Requested Extensions:
            X509v3 Basic Constraints: critical
                CA:FALSE
            X509v3 Key Usage: 
                Digital Signature, Non Repudiation, Key Encipherment, Data Encipherment, Key Agreement
            X509v3 Subject Alternative Name: 
                URI:undefined
            Netscape Comment: 
                CA Generated by Node-OPCUA Certificate utility using openssl
    Signature Algorithm: sha256WithRSAEncryption
         49:24:6a:91:65:16:7c:f0:c5:43:dd:a3:f1:14:3f:89:bc:86:
         8f:33:1b:3a:f2:11:ce:1f:bf:e5:39:b8:a5:d4:3c:46:93:fa:
         4d:f2:59:38:7a:4c:42:48:4d:3b:ad:f7:9e:89:6d:09:8f:26:
         6e:96:9e:9c:65:29:cb:ab:db:a4:7a:b7:fe:4c:f8:a9:ba:92:
         16:eb:40:58:1e:bc:3a:b5:30:66:34:7c:5f:a0:db:30:06:1c:
         50:2d:1f:55:aa:06:d6:8c:2f:db:11:28:44:98:d3:78:b6:e2:
         11:c4:ba:75:0f:f2:28:96:98:65:19:28:0c:f5:c8:82:77:e7:
         c3:26:b2:c8:77:dc:9c:6c:1f:1d:83:93:15:ca:11:2f:74:ed:
         02:fc:ab:cb:83:e5:2c:aa:04:14:cd:29:04:8c:66:fa:5a:93:
         30:a1:9b:da:05:f1:1e:0d:aa:ba:cc:6e:41:c6:bc:71:e7:f8:
         13:55:d5:da:f9:df:68:44:e6:38:75:f9:0d:73:02:7d:9b:6a:
         19:88:e1:19:f7:d0:76:3b:ca:84:c3:1c:83:90:fb:08:ce:21:
         4f:00:1d:19:b1:8b:9f:3c:68:12:e2:46:ed:6b:b1:2e:b7:5c:
         8b:a2:48:70:10:d6:ad:3d:b9:69:e8:02:b0:b6:ea:79:bf:de:
         06:3e:45:4c
-----BEGIN CERTIFICATE REQUEST-----
MIIDSjCCAjICAQAwczELMAkGA1UEBhMCRlIxDDAKBgNVBAgTA0lERjEOMAwGA1UE
BxMFUGFyaXMxLzAtBgNVBAoTJkxvY2FsIE5PREUtT1BDVUEgQ2VydGlmaWNhdGUg
QXV0aG9yaXR5MRUwEwYDVQQDEwxOb2RlT1BDVUEtQ0EwggEiMA0GCSqGSIb3DQEB
AQUAA4IBDwAwggEKAoIBAQDfifRzXYioPJQ3mWZEnSzRpJjvOvrlROeouyFj+pKv
psuzC44NfeZozKEqj/oque8MaCw8awoHcAIV7Pu0T8p4hw25/V1jEFdpjQkokzvH
b07APo5BLGqESy0v6EYpkg/P4oGtxO2uCgMGyYfa3Ve5S1EkarsTomfx0TsnbHTl
ZZjiotoPmNr9HzccrFChsV3VjXm99+D657vdICkhSx+dU3W/LIgje1hhDhdWabbg
F9v/npaucyUkA6WI74Zwj3/QKDq6anWz8GGnOJJCXoP+pI61HiWTkqdDfZ5nFEhm
jv2aSDLBoj7m/L5kZDnK2thzQtU/IsIlRojzNAvW0ZoxAgMBAAGggZEwgY4GCSqG
SIb3DQEJDjGBgDB+MAwGA1UdEwEB/wQCMAAwCwYDVR0PBAQDAgP4MBQGA1UdEQQN
MAuGCXVuZGVmaW5lZDBLBglghkgBhvhCAQ0EPhY8Q0EgR2VuZXJhdGVkIGJ5IE5v
ZGUtT1BDVUEgQ2VydGlmaWNhdGUgdXRpbGl0eSB1c2luZyBvcGVuc3NsMA0GCSqG
SIb3DQEBCwUAA4IBAQBJJGqRZRZ88MVD3aPxFD+JvIaPMxs68hHOH7/lObil1DxG
k/pN8lk4ekxCSE07rfeeiW0JjyZulp6cZSnLq9ukerf+TPipupIW60BYHrw6tTBm
NHxfoNswBhxQLR9VqgbWjC/bEShEmNN4tuIRxLp1D/IolphlGSgM9ciCd+fDJrLI
d9ycbB8dg5MVyhEvdO0C/KvLg+UsqgQUzSkEjGb6WpMwoZvaBfEeDaq6zG5Bxrxx
5/gTVdXa+d9oROY4dfkNcwJ9m2oZiOEZ99B2O8qEwxyDkPsIziFPAB0ZsYufPGgS
4kbta7Eut1yLokhwENatPblp6AKwtup5v94GPkVM
-----END CERTIFICATE REQUEST-----
